target datalayout = "e-m:e-p270:32:32-p271:32:32-p272:64:64-i64:64-i128:128-f80:128-n8:16:32:64-S128"
target triple = "x86_64-pc-linux-gnu"

%struct.lv_mem_monitor_t = type { i64, i64, i64, i64, i64, i64, i8, i8 }

; Function Attrs: nounwind uwtable
define internal void @lv_mem_walker(ptr noundef %0, i64 noundef %1, i32 noundef %2, ptr noundef %3) #0 {
  %5 = alloca ptr, align 8
  %6 = alloca i64, align 8
  %7 = alloca i32, align 4
  %8 = alloca ptr, align 8
  %9 = alloca ptr, align 8
  store ptr %0, ptr %5, align 8, !tbaa !30
  store i64 %1, ptr %6, align 8, !tbaa !31
  store i32 %2, ptr %7, align 4, !tbaa !44
  store ptr %3, ptr %8, align 8, !tbaa !30
  call void @llvm.lifetime.start.p0(i64 8, ptr %9) #4
  %10 = load ptr, ptr %8, align 8, !tbaa !30
  store ptr %10, ptr %9, align 8, !tbaa !30
  %11 = load i64, ptr %6, align 8, !tbaa !31
  %12 = load ptr, ptr %9, align 8, !tbaa !30
  %13 = getelementptr inbounds nuw %struct.lv_mem_monitor_t, ptr %12, i32 0, i32 0
  %14 = load i64, ptr %13, align 8, !tbaa !39
  %15 = add i64 %14, %11
  store i64 %15, ptr %13, align 8, !tbaa !39
  %16 = load i32, ptr %7, align 4, !tbaa !44
  %17 = icmp ne i32 %16, 0
  br i1 %17, label %18, label %23

18:                                               ; preds = %4
  %19 = load ptr, ptr %9, align 8, !tbaa !30
  %20 = getelementptr inbounds nuw %struct.lv_mem_monitor_t, ptr %19, i32 0, i32 4
  %21 = load i64, ptr %20, align 8, !tbaa !45
  %22 = add i64 %21, 1
  store i64 %22, ptr %20, align 8, !tbaa !45
  br label %43

23:                                               ; preds = %4
  %24 = load ptr, ptr %9, align 8, !tbaa !30
  %25 = getelementptr inbounds nuw %struct.lv_mem_monitor_t, ptr %24, i32 0, i32 1
  %26 = load i64, ptr %25, align 8, !tbaa !46
  %27 = add i64 %26, 1
  store i64 %27, ptr %25, align 8, !tbaa !46
  %28 = load i64, ptr %6, align 8, !tbaa !31
  %29 = load ptr, ptr %9, align 8, !tbaa !30
  %30 = getelementptr inbounds nuw %struct.lv_mem_monitor_t, ptr %29, i32 0, i32 2
  %31 = load i64, ptr %30, align 8, !tbaa !37
  %32 = add i64 %31, %28
  store i64 %32, ptr %30, align 8, !tbaa !37
  %33 = load i64, ptr %6, align 8, !tbaa !31
  %34 = load ptr, ptr %9, align 8, !tbaa !30
  %35 = getelementptr inbounds nuw %struct.lv_mem_monitor_t, ptr %34, i32 0, i32 3
  %36 = load i64, ptr %35, align 8, !tbaa !41
  %37 = icmp ugt i64 %33, %36
  br i1 %37, label %38, label %42

38:                                               ; preds = %23
  %39 = load i64, ptr %6, align 8, !tbaa !31
  %40 = load ptr, ptr %9, align 8, !tbaa !30
  %41 = getelementptr inbounds nuw %struct.lv_mem_monitor_t, ptr %40, i32 0, i32 3
  store i64 %39, ptr %41, align 8, !tbaa !41
  br label %42

42:                                               ; preds = %38, %23
  br label %43

43:                                               ; preds = %42, %18
  call void @llvm.lifetime.end.p0(i64 8, ptr %9) #4
  ret void
}