; Function Attrs: mustprogress nofree norecurse nosync nounwind willreturn memory(argmem: readwrite) uwtable
define internal void @lv_mem_walker(ptr readnone captures(none) %0, i64 noundef %1, i32 noundef %2, ptr noundef captures(none) %3) #2 {
  %5 = load i64, ptr %3, align 8, !tbaa !38
  %6 = add i64 %5, %1
  store i64 %6, ptr %3, align 8, !tbaa !38
  %.not = icmp eq i32 %2, 0
  br i1 %.not, label %11, label %7

7:                                                ; preds = %4
  %8 = getelementptr inbounds nuw i8, ptr %3, i64 32
  %9 = load i64, ptr %8, align 8, !tbaa !43
  %10 = add i64 %9, 1
  store i64 %10, ptr %8, align 8, !tbaa !43
  br label %22

11:                                               ; preds = %4
  %12 = getelementptr inbounds nuw i8, ptr %3, i64 8
  %13 = load i64, ptr %12, align 8, !tbaa !44
  %14 = add i64 %13, 1
  store i64 %14, ptr %12, align 8, !tbaa !44
  %15 = getelementptr inbounds nuw i8, ptr %3, i64 16
  %16 = load i64, ptr %15, align 8, !tbaa !36
  %17 = add i64 %16, %1
  store i64 %17, ptr %15, align 8, !tbaa !36
  %18 = getelementptr inbounds nuw i8, ptr %3, i64 24
  %19 = load i64, ptr %18, align 8, !tbaa !40
  %20 = icmp ugt i64 %1, %19
  br i1 %20, label %21, label %22

21:                                               ; preds = %11
  store i64 %1, ptr %18, align 8, !tbaa !40
  br label %22

22:                                               ; preds = %11, %21, %7
  ret void
}